target datalayout = "e-m:e-p270:32:32-p271:32:32-p272:64:64-i64:64-i128:128-f80:128-n8:16:32:64-S128"
target triple = "x86_64-pc-linux-gnu"

%struct.timeval = type { i64, i64 }
%struct._entry_details = type { i32, i16, ptr, ptr, ptr }
%struct._logentry = type { i32, i8, i16, i64, %struct.timeval, i32, [0 x %union.anon] }
%union.anon = type { i8 }

@stderr = external global ptr, align 8
@.str.20 = private unnamed_addr constant [54 x i8] c"LOGGER: Failed to vsnprintf a text entry: (total) %d\0A\00", align 1

; Function Attrs: nounwind uwtable
define internal void @_logger_log_text(ptr noundef %0, ptr noundef %1, ptr noundef %2, ptr noundef %3) #0 {
  %5 = alloca ptr, align 8
  %6 = alloca ptr, align 8
  %7 = alloca ptr, align 8
  %8 = alloca ptr, align 8
  %9 = alloca i32, align 4
  %10 = alloca i32, align 4
  store ptr %0, ptr %5, align 8, !tbaa !33
  store ptr %1, ptr %6, align 8, !tbaa !30
  store ptr %2, ptr %7, align 8, !tbaa !28
  store ptr %3, ptr %8, align 8, !tbaa !105
  call void @llvm.lifetime.start.p0(i64 4, ptr %9) #11
  %11 = load ptr, ptr %6, align 8, !tbaa !30
  %12 = getelementptr inbounds nuw %struct._entry_details, ptr %11, i32 0, i32 0
  %13 = load i32, ptr %12, align 8, !tbaa !31
  store i32 %13, ptr %9, align 4, !tbaa !11
  call void @llvm.lifetime.start.p0(i64 4, ptr %10) #11
  %14 = load ptr, ptr %5, align 8, !tbaa !33
  %15 = getelementptr inbounds nuw %struct._logentry, ptr %14, i32 0, i32 6
  %16 = getelementptr inbounds [0 x %union.anon], ptr %15, i64 0, i64 0
  %17 = load i32, ptr %9, align 4, !tbaa !11
  %18 = sext i32 %17 to i64
  %19 = load ptr, ptr %6, align 8, !tbaa !30
  %20 = getelementptr inbounds nuw %struct._entry_details, ptr %19, i32 0, i32 4
  %21 = load ptr, ptr %20, align 8, !tbaa !107
  %22 = load ptr, ptr %8, align 8, !tbaa !105
  %23 = call i32 @vsnprintf(ptr noundef %16, i64 noundef %18, ptr noundef %21, ptr noundef %22) #11
  store i32 %23, ptr %10, align 4, !tbaa !11
  %24 = load i32, ptr %10, align 4, !tbaa !11
  %25 = icmp sle i32 %24, 0
  br i1 %25, label %26, label %30

26:                                               ; preds = %4
  %27 = load ptr, ptr @stderr, align 8, !tbaa !13
  %28 = load i32, ptr %10, align 4, !tbaa !11
  %29 = call i32 (ptr, ptr, ...) @fprintf(ptr noundef %27, ptr noundef @.str.20, i32 noundef %28) #11
  br label %30

30:                                               ; preds = %26, %4
  %31 = load i32, ptr %10, align 4, !tbaa !11
  %32 = add nsw i32 %31, 1
  %33 = load ptr, ptr %5, align 8, !tbaa !33
  %34 = getelementptr inbounds nuw %struct._logentry, ptr %33, i32 0, i32 5
  store i32 %32, ptr %34, align 8, !tbaa !11
  call void @llvm.lifetime.end.p0(i64 4, ptr %10) #11
  call void @llvm.lifetime.end.p0(i64 4, ptr %9) #11
  ret void
}