; Function Attrs: nofree nounwind uwtable
define internal void @_logger_log_text(ptr noundef captures(none) %0, ptr noundef readonly captures(none) %1, ptr readnone captures(none) %2, ptr noundef %3) #12 {
  %5 = load i32, ptr %1, align 8, !tbaa !28
  %6 = getelementptr inbounds nuw i8, ptr %0, i64 36
  %7 = sext i32 %5 to i64
  %8 = getelementptr inbounds nuw i8, ptr %1, i64 24
  %9 = load ptr, ptr %8, align 8, !tbaa !90
  %10 = tail call i32 @vsnprintf(ptr noundef nonnull %6, i64 noundef %7, ptr noundef %9, ptr noundef %3) #18
  %11 = icmp slt i32 %10, 1
  br i1 %11, label %12, label %15

12:                                               ; preds = %4
  %13 = load ptr, ptr @stderr, align 8, !tbaa !11
  %14 = tail call i32 (ptr, ptr, ...) @fprintf(ptr noundef %13, ptr noundef nonnull @.str.20, i32 noundef %10) #19
  br label %15

15:                                               ; preds = %12, %4
  %16 = add nsw i32 %10, 1
  %17 = getelementptr inbounds nuw i8, ptr %0, i64 32
  store i32 %16, ptr %17, align 8, !tbaa !9
  ret void
}